target datalayout = "e-m:e-p270:32:32-p271:32:32-p272:64:64-i64:64-i128:128-f80:128-n8:16:32:64-S128"
target triple = "x86_64-pc-linux-gnu"

%class.QFlags = type { i32 }
%class.QFlags.16 = type { i32 }
%class.QFlags.17 = type { i32 }
%class.QPoint = type { i32, i32 }
%class.edit_referencingDialog = type { %class.QDockWidget, ptr, ptr, ptr }
%class.QDockWidget = type { %class.QWidget }
%class.QWidget = type { %class.QObject, %class.QPaintDevice, ptr }
%class.QObject = type { ptr, %class.QScopedPointer }
%class.QScopedPointer = type { ptr }
%class.QPaintDevice = type { ptr, i16, ptr }
%class.Ui_edit_referencingDialog = type { ptr, ptr, ptr, ptr, ptr, ptr, ptr, ptr, ptr, ptr, ptr, ptr, ptr, ptr, ptr, ptr, ptr, ptr, ptr, ptr, ptr, ptr, ptr, ptr, ptr, ptr, ptr, ptr, ptr, ptr, ptr, ptr, ptr, ptr, ptr, ptr, ptr, ptr, ptr, ptr, ptr, ptr, ptr, ptr, ptr }
%class.QFont = type <{ %class.QExplicitlySharedDataPointer, i32, [4 x i8] }>
%class.QExplicitlySharedDataPointer = type { ptr }
%class.QRect = type { i32, i32, i32, i32 }
%class.QWidgetData = type { i64, i32, %class.QFlags, i32, %class.QRect, [4 x i8], %class.QPalette, %class.QFont, %class.QRect }
%class.QPalette = type <{ ptr, %union.anon.20, [4 x i8] }>
%union.anon.20 = type { %"struct.QPalette::Data" }
%"struct.QPalette::Data" = type { i32 }

@_ZTV22edit_referencingDialog = external unnamed_addr constant { [54 x ptr], [10 x ptr] }, align 8

; Function Attrs: mustprogress nounwind uwtable
define linkonce_odr void @_ZN5QRectC2Eiiii(ptr noundef nonnull align 4 dereferenceable(16) %0, i32 noundef %1, i32 noundef %2, i32 noundef %3, i32 noundef %4) unnamed_addr #4 comdat align 2 {
  %6 = alloca ptr, align 8
  %7 = alloca i32, align 4
  %8 = alloca i32, align 4
  %9 = alloca i32, align 4
  %10 = alloca i32, align 4
  store ptr %0, ptr %6, align 8
  store i32 %1, ptr %7, align 4
  store i32 %2, ptr %8, align 4
  store i32 %3, ptr %9, align 4
  store i32 %4, ptr %10, align 4
  %11 = load ptr, ptr %6, align 8
  %12 = getelementptr inbounds %class.QRect, ptr %11, i32 0, i32 0
  %13 = load i32, ptr %7, align 4
  store i32 %13, ptr %12, align 4
  %14 = getelementptr inbounds %class.QRect, ptr %11, i32 0, i32 1
  %15 = load i32, ptr %8, align 4
  store i32 %15, ptr %14, align 4
  %16 = getelementptr inbounds %class.QRect, ptr %11, i32 0, i32 2
  %17 = load i32, ptr %7, align 4
  %18 = load i32, ptr %9, align 4
  %19 = add nsw i32 %17, %18
  %20 = sub nsw i32 %19, 1
  store i32 %20, ptr %16, align 4
  %21 = getelementptr inbounds %class.QRect, ptr %11, i32 0, i32 3
  %22 = load i32, ptr %8, align 4
  %23 = load i32, ptr %10, align 4
  %24 = add nsw i32 %22, %23
  %25 = sub nsw i32 %24, 1
  store i32 %25, ptr %21, align 4
  ret void
}

; Function Attrs: mustprogress nounwind uwtable
define linkonce_odr noundef i32 @_ZNK5QRect6heightEv(ptr noundef nonnull align 4 dereferenceable(16) %0) #4 comdat align 2 {
  %2 = alloca ptr, align 8
  store ptr %0, ptr %2, align 8
  %3 = load ptr, ptr %2, align 8
  %4 = getelementptr inbounds %class.QRect, ptr %3, i32 0, i32 3
  %5 = load i32, ptr %4, align 4
  %6 = getelementptr inbounds %class.QRect, ptr %3, i32 0, i32 1
  %7 = load i32, ptr %6, align 4
  %8 = sub nsw i32 %5, %7
  %9 = add nsw i32 %8, 1
  ret i32 %9
}

; Function Attrs: mustprogress nounwind uwtable
define linkonce_odr noundef i32 @_ZNK5QRect5widthEv(ptr noundef nonnull align 4 dereferenceable(16) %0) #4 comdat align 2 {
  %2 = alloca ptr, align 8
  store ptr %0, ptr %2, align 8
  %3 = load ptr, ptr %2, align 8
  %4 = getelementptr inbounds %class.QRect, ptr %3, i32 0, i32 2
  %5 = load i32, ptr %4, align 4
  %6 = getelementptr inbounds %class.QRect, ptr %3, i32 0, i32 0
  %7 = load i32, ptr %6, align 4
  %8 = sub nsw i32 %5, %7
  %9 = add nsw i32 %8, 1
  ret i32 %9
}

; Function Attrs: mustprogress uwtable
define linkonce_odr void @_ZN7QWidget11setGeometryEiiii(ptr noundef nonnull align 8 dereferenceable(48) %0, i32 noundef %1, i32 noundef %2, i32 noundef %3, i32 noundef %4) #5 comdat align 2 {
  %6 = alloca ptr, align 8
  %7 = alloca i32, align 4
  %8 = alloca i32, align 4
  %9 = alloca i32, align 4
  %10 = alloca i32, align 4
  %11 = alloca %class.QRect, align 4
  store ptr %0, ptr %6, align 8
  store i32 %1, ptr %7, align 4
  store i32 %2, ptr %8, align 4
  store i32 %3, ptr %9, align 4
  store i32 %4, ptr %10, align 4
  %12 = load ptr, ptr %6, align 8
  %13 = load i32, ptr %7, align 4
  %14 = load i32, ptr %8, align 4
  %15 = load i32, ptr %9, align 4
  %16 = load i32, ptr %10, align 4
  call void @_ZN5QRectC2Eiiii(ptr noundef nonnull align 4 dereferenceable(16) %11, i32 noundef %13, i32 noundef %14, i32 noundef %15, i32 noundef %16) #3
  call void @_ZN7QWidget11setGeometryERK5QRect(ptr noundef nonnull align 8 dereferenceable(48) %12, ptr noundef nonnull align 4 dereferenceable(16) %11)
  ret void
}

; Function Attrs: mustprogress nounwind uwtable
define linkonce_odr noundef i32 @_ZNK7QWidget6heightEv(ptr noundef nonnull align 8 dereferenceable(48) %0) #4 comdat align 2 {
  %2 = alloca ptr, align 8
  store ptr %0, ptr %2, align 8
  %3 = load ptr, ptr %2, align 8
  %4 = getelementptr inbounds %class.QWidget, ptr %3, i32 0, i32 2
  %5 = load ptr, ptr %4, align 8
  %6 = getelementptr inbounds %class.QWidgetData, ptr %5, i32 0, i32 4
  %7 = call noundef i32 @_ZNK5QRect6heightEv(ptr noundef nonnull align 4 dereferenceable(16) %6) #3
  ret i32 %7
}

; Function Attrs: mustprogress nounwind uwtable
define linkonce_odr noundef i32 @_ZNK6QPoint1yEv(ptr noundef nonnull align 4 dereferenceable(8) %0) #4 comdat align 2 {
  %2 = alloca ptr, align 8
  store ptr %0, ptr %2, align 8
  %3 = load ptr, ptr %2, align 8
  %4 = getelementptr inbounds %class.QPoint, ptr %3, i32 0, i32 1
  %5 = load i32, ptr %4, align 4
  ret i32 %5
}

; Function Attrs: mustprogress nounwind uwtable
define linkonce_odr noundef i32 @_ZNK7QWidget5widthEv(ptr noundef nonnull align 8 dereferenceable(48) %0) #4 comdat align 2 {
  %2 = alloca ptr, align 8
  store ptr %0, ptr %2, align 8
  %3 = load ptr, ptr %2, align 8
  %4 = getelementptr inbounds %class.QWidget, ptr %3, i32 0, i32 2
  %5 = load ptr, ptr %4, align 8
  %6 = getelementptr inbounds %class.QWidgetData, ptr %5, i32 0, i32 4
  %7 = call noundef i32 @_ZNK5QRect5widthEv(ptr noundef nonnull align 4 dereferenceable(16) %6) #3
  ret i32 %7
}

; Function Attrs: mustprogress nounwind uwtable
define linkonce_odr noundef i32 @_ZNK6QPoint1xEv(ptr noundef nonnull align 4 dereferenceable(8) %0) #4 comdat align 2 {
  %2 = alloca ptr, align 8
  store ptr %0, ptr %2, align 8
  %3 = load ptr, ptr %2, align 8
  %4 = getelementptr inbounds %class.QPoint, ptr %3, i32 0, i32 0
  %5 = load i32, ptr %4, align 4
  ret i32 %5
}

; Function Attrs: mustprogress nounwind uwtable
define linkonce_odr void @_ZN6QPointC2Eii(ptr noundef nonnull align 4 dereferenceable(8) %0, i32 noundef %1, i32 noundef %2) unnamed_addr #4 comdat align 2 {
  %4 = alloca ptr, align 8
  %5 = alloca i32, align 4
  %6 = alloca i32, align 4
  store ptr %0, ptr %4, align 8
  store i32 %1, ptr %5, align 4
  store i32 %2, ptr %6, align 4
  %7 = load ptr, ptr %4, align 8
  %8 = getelementptr inbounds %class.QPoint, ptr %7, i32 0, i32 0
  %9 = load i32, ptr %5, align 4
  store i32 %9, ptr %8, align 4
  %10 = getelementptr inbounds %class.QPoint, ptr %7, i32 0, i32 1
  %11 = load i32, ptr %6, align 4
  store i32 %11, ptr %10, align 4
  ret void
}

; Function Attrs: mustprogress nounwind uwtable
define linkonce_odr void @_ZN6QFlagsIN2Qt14DockWidgetAreaEEC2ES1_(ptr noundef nonnull align 4 dereferenceable(4) %0, i32 noundef %1) unnamed_addr #4 comdat align 2 {
  %3 = alloca ptr, align 8
  %4 = alloca i32, align 4
  store ptr %0, ptr %3, align 8
  store i32 %1, ptr %4, align 4
  %5 = load ptr, ptr %3, align 8
  %6 = getelementptr inbounds %class.QFlags.17, ptr %5, i32 0, i32 0
  %7 = load i32, ptr %4, align 4
  store i32 %7, ptr %6, align 4
  ret void
}

; Function Attrs: mustprogress nounwind uwtable
define linkonce_odr void @_ZN6QFlagsIN11QDockWidget17DockWidgetFeatureEEC2ES1_(ptr noundef nonnull align 4 dereferenceable(4) %0, i32 noundef %1) unnamed_addr #4 comdat align 2 {
  %3 = alloca ptr, align 8
  %4 = alloca i32, align 4
  store ptr %0, ptr %3, align 8
  store i32 %1, ptr %4, align 4
  %5 = load ptr, ptr %3, align 8
  %6 = getelementptr inbounds %class.QFlags.16, ptr %5, i32 0, i32 0
  %7 = load i32, ptr %4, align 4
  store i32 %7, ptr %6, align 4
  ret void
}

; Function Attrs: mustprogress nounwind uwtable
define linkonce_odr void @_ZN6QFlagsIN2Qt10WindowTypeEEC2Ev(ptr noundef nonnull align 4 dereferenceable(4) %0) unnamed_addr #4 comdat align 2 {
  %2 = alloca ptr, align 8
  store ptr %0, ptr %2, align 8
  %3 = load ptr, ptr %2, align 8
  %4 = getelementptr inbounds %class.QFlags, ptr %3, i32 0, i32 0
  store i32 0, ptr %4, align 4
  ret void
}

; Function Attrs: mustprogress uwtable
define void @_ZN22edit_referencingDialogC2EP7QWidgetP21EditReferencingPlugin(ptr noundef nonnull align 8 dereferenceable(72) %0, ptr noundef %1, ptr noundef %2) unnamed_addr #5 align 2 personality ptr @__gxx_personality_v0 {
  %4 = alloca ptr, align 8
  %5 = alloca ptr, align 8
  %6 = alloca ptr, align 8
  %7 = alloca %class.QFlags, align 4
  %8 = alloca ptr, align 8
  %9 = alloca i32, align 4
  %10 = alloca %class.QFlags.16, align 4
  %11 = alloca %class.QFlags.17, align 4
  %12 = alloca %class.QPoint, align 4
  %13 = alloca %class.QPoint, align 4
  store ptr %0, ptr %4, align 8
  store ptr %1, ptr %5, align 8
  store ptr %2, ptr %6, align 8
  %14 = load ptr, ptr %4, align 8
  %15 = load ptr, ptr %5, align 8
  call void @_ZN6QFlagsIN2Qt10WindowTypeEEC2Ev(ptr noundef nonnull align 4 dereferenceable(4) %7) #3
  %16 = getelementptr inbounds %class.QFlags, ptr %7, i32 0, i32 0
  %17 = load i32, ptr %16, align 4
  call void @_ZN11QDockWidgetC2EP7QWidget6QFlagsIN2Qt10WindowTypeEE(ptr noundef nonnull align 8 dereferenceable(48) %14, ptr noundef %15, i32 %17)
  store ptr getelementptr inbounds ({ [54 x ptr], [10 x ptr] }, ptr @_ZTV22edit_referencingDialog, i32 0, i32 0, i32 2), ptr %14, align 8
  %18 = getelementptr inbounds i8, ptr %14, i64 16
  store ptr getelementptr inbounds ({ [54 x ptr], [10 x ptr] }, ptr @_ZTV22edit_referencingDialog, i32 0, i32 1, i32 2), ptr %18, align 8
  %19 = getelementptr inbounds %class.edit_referencingDialog, ptr %14, i32 0, i32 1
  %20 = invoke noalias noundef nonnull ptr @_Znwm(i64 noundef 360) #17
          to label %21 unwind label %60

21:                                               ; preds = %3
  store ptr %20, ptr %19, align 8
  %22 = getelementptr inbounds %class.edit_referencingDialog, ptr %14, i32 0, i32 1
  %23 = load ptr, ptr %22, align 8
  invoke void @_ZN25Ui_edit_referencingDialog7setupUiEP7QWidget(ptr noundef nonnull align 8 dereferenceable(360) %23, ptr noundef %14)
          to label %24 unwind label %60

24:                                               ; preds = %21
  %25 = getelementptr inbounds %class.edit_referencingDialog, ptr %14, i32 0, i32 1
  %26 = load ptr, ptr %25, align 8
  %27 = getelementptr inbounds %class.Ui_edit_referencingDialog, ptr %26, i32 0, i32 1
  %28 = load ptr, ptr %27, align 8
  invoke void @_ZN11QDockWidget9setWidgetEP7QWidget(ptr noundef nonnull align 8 dereferenceable(48) %14, ptr noundef %28)
          to label %29 unwind label %60

29:                                               ; preds = %24
  call void @_ZN6QFlagsIN11QDockWidget17DockWidgetFeatureEEC2ES1_(ptr noundef nonnull align 4 dereferenceable(4) %10, i32 noundef 7) #3
  %30 = getelementptr inbounds %class.QFlags.16, ptr %10, i32 0, i32 0
  %31 = load i32, ptr %30, align 4
  invoke void @_ZN11QDockWidget11setFeaturesE6QFlagsINS_17DockWidgetFeatureEE(ptr noundef nonnull align 8 dereferenceable(48) %14, i32 %31)
          to label %32 unwind label %60

32:                                               ; preds = %29
  call void @_ZN6QFlagsIN2Qt14DockWidgetAreaEEC2ES1_(ptr noundef nonnull align 4 dereferenceable(4) %11, i32 noundef 1) #3
  %33 = getelementptr inbounds %class.QFlags.17, ptr %11, i32 0, i32 0
  %34 = load i32, ptr %33, align 4
  invoke void @_ZN11QDockWidget15setAllowedAreasE6QFlagsIN2Qt14DockWidgetAreaEE(ptr noundef nonnull align 8 dereferenceable(48) %14, i32 %34)
          to label %35 unwind label %60

35:                                               ; preds = %32
  %36 = load ptr, ptr %5, align 8
  invoke void @_ZN6QPointC2Eii(ptr noundef nonnull align 4 dereferenceable(8) %13, i32 noundef 0, i32 noundef 0)
          to label %37 unwind label %60

37:                                               ; preds = %35
  %38 = invoke i64 @_ZNK7QWidget11mapToGlobalERK6QPoint(ptr noundef nonnull align 8 dereferenceable(48) %36, ptr noundef nonnull align 4 dereferenceable(8) %13)
          to label %39 unwind label %60

39:                                               ; preds = %37
  store i64 %38, ptr %12, align 4
  invoke void @_ZN11QDockWidget11setFloatingEb(ptr noundef nonnull align 8 dereferenceable(48) %14, i1 noundef zeroext true)
          to label %40 unwind label %60

40:                                               ; preds = %39
  %41 = invoke noundef i32 @_ZNK6QPoint1xEv(ptr noundef nonnull align 4 dereferenceable(8) %12)
          to label %42 unwind label %60

42:                                               ; preds = %40
  %43 = load ptr, ptr %5, align 8
  %44 = invoke noundef i32 @_ZNK7QWidget5widthEv(ptr noundef nonnull align 8 dereferenceable(48) %43)
          to label %45 unwind label %60

45:                                               ; preds = %42
  %46 = invoke noundef i32 @_ZNK7QWidget5widthEv(ptr noundef nonnull align 8 dereferenceable(48) %14)
          to label %47 unwind label %60

47:                                               ; preds = %45
  %48 = sub nsw i32 %44, %46
  %49 = add nsw i32 %41, %48
  %50 = invoke noundef i32 @_ZNK6QPoint1yEv(ptr noundef nonnull align 4 dereferenceable(8) %12)
          to label %51 unwind label %60

51:                                               ; preds = %47
  %52 = add nsw i32 %50, 40
  %53 = invoke noundef i32 @_ZNK7QWidget5widthEv(ptr noundef nonnull align 8 dereferenceable(48) %14)
          to label %54 unwind label %60

54:                                               ; preds = %51
  %55 = invoke noundef i32 @_ZNK7QWidget6heightEv(ptr noundef nonnull align 8 dereferenceable(48) %14)
          to label %56 unwind label %60

56:                                               ; preds = %54
  invoke void @_ZN7QWidget11setGeometryEiiii(ptr noundef nonnull align 8 dereferenceable(48) %14, i32 noundef %49, i32 noundef %52, i32 noundef %53, i32 noundef %55)
          to label %57 unwind label %60

57:                                               ; preds = %56
  %58 = load ptr, ptr %6, align 8
  %59 = getelementptr inbounds %class.edit_referencingDialog, ptr %14, i32 0, i32 3
  store ptr %58, ptr %59, align 8
  ret void

60:                                               ; preds = %56, %54, %51, %47, %45, %42, %40, %39, %37, %35, %32, %29, %24, %21, %3
  %61 = landingpad { ptr, i32 }
          cleanup
  %62 = extractvalue { ptr, i32 } %61, 0
  store ptr %62, ptr %8, align 8
  %63 = extractvalue { ptr, i32 } %61, 1
  store i32 %63, ptr %9, align 4
  call void @_ZN11QDockWidgetD2Ev(ptr noundef nonnull align 8 dereferenceable(48) %14) #3
  br label %64

64:                                               ; preds = %60
  %65 = load ptr, ptr %8, align 8
  %66 = load i32, ptr %9, align 4
  %67 = insertvalue { ptr, i32 } poison, ptr %65, 0
  %68 = insertvalue { ptr, i32 } %67, i32 %66, 1
  resume { ptr, i32 } %68
}