; Function Attrs: mustprogress uwtable
define void @_ZN22edit_referencingDialogC2EP7QWidgetP21EditReferencingPlugin(ptr noundef nonnull align 8 dereferenceable(72) %0, ptr noundef %1, ptr noundef %2) unnamed_addr #9 align 2 personality ptr @__gxx_personality_v0 {
  %4 = alloca %class.QRect, align 4
  %5 = alloca %class.QPoint, align 4
  tail call void @_ZN11QDockWidgetC2EP7QWidget6QFlagsIN2Qt10WindowTypeEE(ptr noundef nonnull align 8 dereferenceable(48) %0, ptr noundef %1, i32 0)
  store ptr getelementptr inbounds ({ [54 x ptr], [10 x ptr] }, ptr @_ZTV22edit_referencingDialog, i64 0, i32 0, i64 2), ptr %0, align 8
  %6 = getelementptr inbounds i8, ptr %0, i64 16
  store ptr getelementptr inbounds ({ [54 x ptr], [10 x ptr] }, ptr @_ZTV22edit_referencingDialog, i64 0, i32 1, i64 2), ptr %6, align 8
  %7 = getelementptr inbounds i8, ptr %0, i64 48
  %8 = invoke noalias noundef nonnull dereferenceable(360) ptr @_Znwm(i64 noundef 360) #19
          to label %9 unwind label %52

9:                                                ; preds = %3
  store ptr %8, ptr %7, align 8
  invoke void @_ZN25Ui_edit_referencingDialog7setupUiEP7QWidget(ptr noundef nonnull align 8 dereferenceable(360) %8, ptr noundef nonnull %0)
          to label %10 unwind label %52

10:                                               ; preds = %9
  %11 = load ptr, ptr %7, align 8
  %12 = getelementptr inbounds i8, ptr %11, i64 8
  %13 = load ptr, ptr %12, align 8
  invoke void @_ZN11QDockWidget9setWidgetEP7QWidget(ptr noundef nonnull align 8 dereferenceable(48) %0, ptr noundef %13)
          to label %14 unwind label %52

14:                                               ; preds = %10
  invoke void @_ZN11QDockWidget11setFeaturesE6QFlagsINS_17DockWidgetFeatureEE(ptr noundef nonnull align 8 dereferenceable(48) %0, i32 7)
          to label %15 unwind label %52

15:                                               ; preds = %14
  invoke void @_ZN11QDockWidget15setAllowedAreasE6QFlagsIN2Qt14DockWidgetAreaEE(ptr noundef nonnull align 8 dereferenceable(48) %0, i32 1)
          to label %16 unwind label %52

16:                                               ; preds = %15
  store i32 0, ptr %5, align 4
  %17 = getelementptr inbounds i8, ptr %5, i64 4
  store i32 0, ptr %17, align 4
  %18 = invoke i64 @_ZNK7QWidget11mapToGlobalERK6QPoint(ptr noundef nonnull align 8 dereferenceable(48) %1, ptr noundef nonnull align 4 dereferenceable(8) %5)
          to label %19 unwind label %52

19:                                               ; preds = %16
  invoke void @_ZN11QDockWidget11setFloatingEb(ptr noundef nonnull align 8 dereferenceable(48) %0, i1 noundef zeroext true)
          to label %20 unwind label %52

20:                                               ; preds = %19
  %.sroa.2.0.extract.shift = lshr i64 %18, 32
  %.sroa.2.0.extract.trunc = trunc i64 %.sroa.2.0.extract.shift to i32
  %.sroa.0.0.extract.trunc = trunc i64 %18 to i32
  %21 = getelementptr inbounds i8, ptr %1, i64 40
  %22 = load ptr, ptr %21, align 8
  %23 = getelementptr inbounds i8, ptr %22, i64 20
  %24 = getelementptr inbounds i8, ptr %22, i64 28
  %25 = load i32, ptr %24, align 4
  %26 = load i32, ptr %23, align 4
  %27 = getelementptr inbounds i8, ptr %0, i64 40
  %28 = load ptr, ptr %27, align 8
  %29 = getelementptr inbounds i8, ptr %28, i64 20
  %30 = getelementptr inbounds i8, ptr %28, i64 28
  %31 = load i32, ptr %30, align 4
  %32 = load i32, ptr %29, align 4
  %33 = add i32 %31, 1
  %34 = sub i32 %33, %32
  %.neg11 = add i32 %.sroa.0.0.extract.trunc, 1
  %35 = add i32 %.neg11, %25
  %36 = add i32 %26, %34
  %37 = sub i32 %35, %36
  %38 = add i32 %.sroa.2.0.extract.trunc, 40
  %39 = getelementptr inbounds i8, ptr %28, i64 32
  %40 = load i32, ptr %39, align 4
  %41 = getelementptr inbounds i8, ptr %28, i64 24
  %42 = load i32, ptr %41, align 4
  call void @llvm.lifetime.start.p0(i64 16, ptr nonnull %4)
  store i32 %37, ptr %4, align 4
  %43 = getelementptr inbounds i8, ptr %4, i64 4
  store i32 %38, ptr %43, align 4
  %44 = getelementptr inbounds i8, ptr %4, i64 8
  %45 = add i32 %34, -1
  %46 = add i32 %45, %37
  store i32 %46, ptr %44, align 4
  %47 = getelementptr inbounds i8, ptr %4, i64 12
  %48 = add i32 %38, %40
  %49 = sub i32 %48, %42
  store i32 %49, ptr %47, align 4
  invoke void @_ZN7QWidget11setGeometryERK5QRect(ptr noundef nonnull align 8 dereferenceable(48) %0, ptr noundef nonnull align 4 dereferenceable(16) %4)
          to label %50 unwind label %52

50:                                               ; preds = %20
  call void @llvm.lifetime.end.p0(i64 16, ptr nonnull %4)
  %51 = getelementptr inbounds i8, ptr %0, i64 64
  store ptr %2, ptr %51, align 8
  ret void

52:                                               ; preds = %20, %19, %16, %15, %14, %10, %9, %3
  %53 = landingpad { ptr, i32 }
          cleanup
  call void @_ZN11QDockWidgetD2Ev(ptr noundef nonnull align 8 dereferenceable(48) %0) #16
  resume { ptr, i32 } %53
}